; Function Attrs: nounwind uwtable
define internal noundef ptr @sys_setdlopenflags(ptr readnone captures(none) %0, ptr noundef %1) #0 {
  %3 = tail call i32 @PyLong_AsInt(ptr noundef %1) #15
  %4 = icmp eq i32 %3, -1
  br i1 %4, label %5, label %.sink.split

5:                                                ; preds = %2
  %6 = tail call ptr @PyErr_Occurred() #15
  %.not = icmp eq ptr %6, null
  br i1 %.not, label %.sink.split, label %11

.sink.split:                                      ; preds = %5, %2
  %.sink6 = phi i32 [ %3, %2 ], [ -1, %5 ]
  %7 = tail call align 8 ptr @llvm.threadlocal.address.p0(ptr align 8 @_Py_tss_tstate)
  %8 = load ptr, ptr %7, align 8, !tbaa !92
  %9 = getelementptr inbounds nuw i8, ptr %8, i64 16
  %10 = load ptr, ptr %9, align 8, !tbaa !4
  tail call void @_PyImport_SetDLOpenFlags(ptr noundef %10, i32 noundef %.sink6) #15
  br label %11

11:                                               ; preds = %.sink.split, %5
  %.0 = phi ptr [ null, %5 ], [ @_Py_NoneStruct, %.sink.split ]
  ret ptr %.0
}